; ModuleID = 'source-C-CXX/12/1867.cpp'
source_filename = "source-C-CXX/12/1867.cpp"
target datalayout = "e-m:e-p270:32:32-p271:32:32-p272:64:64-i64:64-f80:128-n8:16:32:64-S128"
target triple = "x86_64-pc-linux-gnu"

%"class.std::ios_base::Init" = type { i8 }
%"class.std::basic_istream" = type { i32 (...)**, i64, %"class.std::basic_ios" }
%"class.std::basic_ios" = type { %"class.std::ios_base", %"class.std::basic_ostream"*, i8, i8, %"class.std::basic_streambuf"*, %"class.std::ctype"*, %"class.std::num_put"*, %"class.std::num_get"* }
%"class.std::ios_base" = type { i32 (...)**, i64, i64, i32, i32, i32, %"struct.std::ios_base::_Callback_list"*, %"struct.std::ios_base::_Words", [8 x %"struct.std::ios_base::_Words"], i32, %"struct.std::ios_base::_Words"*, %"class.std::locale" }
%"struct.std::ios_base::_Callback_list" = type { %"struct.std::ios_base::_Callback_list"*, void (i32, %"class.std::ios_base"*, i32)*, i32, i32 }
%"struct.std::ios_base::_Words" = type { i8*, i64 }
%"class.std::locale" = type { %"class.std::locale::_Impl"* }
%"class.std::locale::_Impl" = type { i32, %"class.std::locale::facet"**, i64, %"class.std::locale::facet"**, i8** }
%"class.std::locale::facet" = type <{ i32 (...)**, i32, [4 x i8] }>
%"class.std::basic_ostream" = type { i32 (...)**, %"class.std::basic_ios" }
%"class.std::basic_streambuf" = type { i32 (...)**, i8*, i8*, i8*, i8*, i8*, i8*, %"class.std::locale" }
%"class.std::ctype" = type <{ %"class.std::locale::facet.base", [4 x i8], %struct.__locale_struct*, i8, [7 x i8], i32*, i32*, i16*, i8, [256 x i8], [256 x i8], i8, [6 x i8] }>
%"class.std::locale::facet.base" = type <{ i32 (...)**, i32 }>
%struct.__locale_struct = type { [13 x %struct.__locale_data*], i16*, i32*, i32*, [13 x i8*] }
%struct.__locale_data = type opaque
%"class.std::num_put" = type { %"class.std::locale::facet.base", [4 x i8] }
%"class.std::num_get" = type { %"class.std::locale::facet.base", [4 x i8] }

@_ZStL8__ioinit = internal global %"class.std::ios_base::Init" zeroinitializer, align 1
@__dso_handle = external hidden global i8
@_ZSt3cin = external global %"class.std::basic_istream", align 8
@_ZSt4cout = external global %"class.std::basic_ostream", align 8
@.str = private unnamed_addr constant [2 x i8] c" \00", align 1
@llvm.global_ctors = appending global [1 x { i32, void ()*, i8* }] [{ i32, void ()*, i8* } { i32 65535, void ()* @_GLOBAL__sub_I_1867.cpp, i8* null }]

declare void @_ZNSt8ios_base4InitC1Ev(%"class.std::ios_base::Init"* nonnull align 1 dereferenceable(1)) unnamed_addr #0

; Function Attrs: nounwind
declare void @_ZNSt8ios_base4InitD1Ev(%"class.std::ios_base::Init"* nonnull align 1 dereferenceable(1)) unnamed_addr #1

; Function Attrs: nofree nounwind
declare i32 @__cxa_atexit(void (i8*)*, i8*, i8*) local_unnamed_addr #2

; Function Attrs: mustprogress norecurse sspstrong uwtable
define dso_local i32 @main() local_unnamed_addr #3 {
  %1 = alloca [20001 x i32], align 16
  %2 = alloca i32, align 4
  %3 = bitcast [20001 x i32]* %1 to i8*
  call void @llvm.lifetime.start.p0i8(i64 80004, i8* nonnull %3) #7
  call void @llvm.memset.p0i8.i64(i8* noundef nonnull align 16 dereferenceable(80004) %3, i8 0, i64 80004, i1 false)
  %4 = bitcast i32* %2 to i8*
  call void @llvm.lifetime.start.p0i8(i64 4, i8* nonnull %4) #7
  %5 = call nonnull align 8 dereferenceable(16) %"class.std::basic_istream"* @_ZNSirsERi(%"class.std::basic_istream"* nonnull align 8 dereferenceable(16) @_ZSt3cin, i32* nonnull align 4 dereferenceable(4) %2)
  %6 = load i32, i32* %2, align 4, !tbaa !5
  %7 = icmp slt i32 %6, 1
  br i1 %7, label %68, label %13

8:                                                ; preds = %13
  %9 = icmp slt i32 %18, 1
  br i1 %9, label %68, label %10

10:                                               ; preds = %8
  %11 = add nuw i32 %18, 1
  %12 = zext i32 %11 to i64
  br label %21

13:                                               ; preds = %0, %13
  %14 = phi i64 [ %17, %13 ], [ 1, %0 ]
  %15 = getelementptr inbounds [20001 x i32], [20001 x i32]* %1, i64 0, i64 %14
  %16 = call nonnull align 8 dereferenceable(16) %"class.std::basic_istream"* @_ZNSirsERi(%"class.std::basic_istream"* nonnull align 8 dereferenceable(16) @_ZSt3cin, i32* nonnull align 4 dereferenceable(4) %15)
  %17 = add nuw nsw i64 %14, 1
  %18 = load i32, i32* %2, align 4, !tbaa !5
  %19 = sext i32 %18 to i64
  %20 = icmp slt i64 %14, %19
  br i1 %20, label %13, label %8, !llvm.loop !9

21:                                               ; preds = %10, %50
  %22 = phi i64 [ 0, %10 ], [ %53, %50 ]
  %23 = phi i64 [ 1, %10 ], [ %51, %50 ]
  %24 = add i64 %22, 1
  %25 = icmp eq i64 %23, 1
  %26 = getelementptr inbounds [20001 x i32], [20001 x i32]* %1, i64 0, i64 %23
  br i1 %25, label %50, label %27

27:                                               ; preds = %21
  %28 = load i32, i32* %26, align 4, !tbaa !5
  %29 = and i64 %24, 1
  %30 = icmp eq i64 %22, 0
  br i1 %30, label %40, label %31

31:                                               ; preds = %27
  %32 = and i64 %24, -2
  br label %54

33:                                               ; preds = %50
  br i1 %9, label %68, label %34

34:                                               ; preds = %33
  %35 = getelementptr inbounds [20001 x i32], [20001 x i32]* %1, i64 0, i64 1
  %36 = load i32, i32* %35, align 4, !tbaa !5
  %37 = call nonnull align 8 dereferenceable(8) %"class.std::basic_ostream"* @_ZNSolsEi(%"class.std::basic_ostream"* nonnull align 8 dereferenceable(8) @_ZSt4cout, i32 %36)
  %38 = load i32, i32* %2, align 4, !tbaa !5
  %39 = icmp sgt i32 %38, 1
  br i1 %39, label %69, label %68

40:                                               ; preds = %86, %27
  %41 = phi i32 [ %28, %27 ], [ %87, %86 ]
  %42 = phi i64 [ 1, %27 ], [ %88, %86 ]
  %43 = icmp eq i64 %29, 0
  br i1 %43, label %50, label %44

44:                                               ; preds = %40
  %45 = add nsw i64 %42, -1
  %46 = getelementptr inbounds [20001 x i32], [20001 x i32]* %1, i64 0, i64 %45
  %47 = load i32, i32* %46, align 4, !tbaa !5
  %48 = icmp eq i32 %47, %41
  br i1 %48, label %49, label %50

49:                                               ; preds = %44
  store i32 0, i32* %26, align 4, !tbaa !5
  br label %50

50:                                               ; preds = %40, %44, %49, %21
  %51 = add nuw nsw i64 %23, 1
  %52 = icmp eq i64 %51, %12
  %53 = add i64 %22, 1
  br i1 %52, label %33, label %21, !llvm.loop !11

54:                                               ; preds = %86, %31
  %55 = phi i32 [ %28, %31 ], [ %87, %86 ]
  %56 = phi i64 [ 1, %31 ], [ %88, %86 ]
  %57 = phi i64 [ %32, %31 ], [ %89, %86 ]
  %58 = add nsw i64 %56, -1
  %59 = getelementptr inbounds [20001 x i32], [20001 x i32]* %1, i64 0, i64 %58
  %60 = load i32, i32* %59, align 4, !tbaa !5
  %61 = icmp eq i32 %60, %55
  br i1 %61, label %62, label %63

62:                                               ; preds = %54
  store i32 0, i32* %26, align 4, !tbaa !5
  br label %63

63:                                               ; preds = %54, %62
  %64 = phi i32 [ %55, %54 ], [ 0, %62 ]
  %65 = getelementptr inbounds [20001 x i32], [20001 x i32]* %1, i64 0, i64 %56
  %66 = load i32, i32* %65, align 4, !tbaa !5
  %67 = icmp eq i32 %66, %64
  br i1 %67, label %85, label %86

68:                                               ; preds = %80, %0, %8, %34, %33
  call void @llvm.lifetime.end.p0i8(i64 4, i8* nonnull %4) #7
  call void @llvm.lifetime.end.p0i8(i64 80004, i8* nonnull %3) #7
  ret i32 0

69:                                               ; preds = %34, %80
  %70 = phi i32 [ %81, %80 ], [ %38, %34 ]
  %71 = phi i64 [ %82, %80 ], [ 2, %34 ]
  %72 = getelementptr inbounds [20001 x i32], [20001 x i32]* %1, i64 0, i64 %71
  %73 = load i32, i32* %72, align 4, !tbaa !5
  %74 = icmp eq i32 %73, 0
  br i1 %74, label %80, label %75

75:                                               ; preds = %69
  %76 = call nonnull align 8 dereferenceable(8) %"class.std::basic_ostream"* @_ZSt16__ostream_insertIcSt11char_traitsIcEERSt13basic_ostreamIT_T0_ES6_PKS3_l(%"class.std::basic_ostream"* nonnull align 8 dereferenceable(8) @_ZSt4cout, i8* nonnull getelementptr inbounds ([2 x i8], [2 x i8]* @.str, i64 0, i64 0), i64 1)
  %77 = load i32, i32* %72, align 4, !tbaa !5
  %78 = call nonnull align 8 dereferenceable(8) %"class.std::basic_ostream"* @_ZNSolsEi(%"class.std::basic_ostream"* nonnull align 8 dereferenceable(8) @_ZSt4cout, i32 %77)
  %79 = load i32, i32* %2, align 4, !tbaa !5
  br label %80

80:                                               ; preds = %69, %75
  %81 = phi i32 [ %70, %69 ], [ %79, %75 ]
  %82 = add nuw nsw i64 %71, 1
  %83 = sext i32 %81 to i64
  %84 = icmp slt i64 %71, %83
  br i1 %84, label %69, label %68, !llvm.loop !12

85:                                               ; preds = %63
  store i32 0, i32* %26, align 4, !tbaa !5
  br label %86

86:                                               ; preds = %85, %63
  %87 = phi i32 [ %64, %63 ], [ 0, %85 ]
  %88 = add nuw nsw i64 %56, 2
  %89 = add i64 %57, -2
  %90 = icmp eq i64 %89, 0
  br i1 %90, label %40, label %54, !llvm.loop !14
}

; Function Attrs: argmemonly mustprogress nofree nosync nounwind willreturn
declare void @llvm.lifetime.start.p0i8(i64 immarg, i8* nocapture) #4

; Function Attrs: argmemonly mustprogress nofree nounwind willreturn writeonly
declare void @llvm.memset.p0i8.i64(i8* nocapture writeonly, i8, i64, i1 immarg) #5

declare nonnull align 8 dereferenceable(16) %"class.std::basic_istream"* @_ZNSirsERi(%"class.std::basic_istream"* nonnull align 8 dereferenceable(16), i32* nonnull align 4 dereferenceable(4)) local_unnamed_addr #0

; Function Attrs: argmemonly mustprogress nofree nosync nounwind willreturn
declare void @llvm.lifetime.end.p0i8(i64 immarg, i8* nocapture) #4

declare nonnull align 8 dereferenceable(8) %"class.std::basic_ostream"* @_ZNSolsEi(%"class.std::basic_ostream"* nonnull align 8 dereferenceable(8), i32) local_unnamed_addr #0

declare nonnull align 8 dereferenceable(8) %"class.std::basic_ostream"* @_ZSt16__ostream_insertIcSt11char_traitsIcEERSt13basic_ostreamIT_T0_ES6_PKS3_l(%"class.std::basic_ostream"* nonnull align 8 dereferenceable(8), i8*, i64) local_unnamed_addr #0

; Function Attrs: sspstrong uwtable
define internal void @_GLOBAL__sub_I_1867.cpp() #6 section ".text.startup" {
  tail call void @_ZNSt8ios_base4InitC1Ev(%"class.std::ios_base::Init"* nonnull align 1 dereferenceable(1) @_ZStL8__ioinit)
  %1 = tail call i32 @__cxa_atexit(void (i8*)* bitcast (void (%"class.std::ios_base::Init"*)* @_ZNSt8ios_base4InitD1Ev to void (i8*)*), i8* getelementptr inbounds (%"class.std::ios_base::Init", %"class.std::ios_base::Init"* @_ZStL8__ioinit, i64 0, i32 0), i8* nonnull @__dso_handle) #7
  ret void
}


!llvm.module.flags = !{!0, !1, !2, !3}
!llvm.ident = !{!4}

!0 = !{i32 1, !"wchar_size", i32 4}
!1 = !{i32 7, !"PIC Level", i32 2}
!2 = !{i32 7, !"PIE Level", i32 2}
!3 = !{i32 7, !"uwtable", i32 1}
!4 = !{!"clang version 13.0.0"}
!5 = !{!6, !6, i64 0}
!6 = !{!"int", !7, i64 0}
!7 = !{!"omnipotent char", !8, i64 0}
!8 = !{!"Simple C++ TBAA"}
!9 = distinct !{!9, !10}
!10 = !{!"llvm.loop.mustprogress"}
!11 = distinct !{!11, !10}
!12 = distinct !{!12, !10, !13}
!13 = !{!"llvm.loop.peeled.count", i32 1}
!14 = distinct !{!14, !10}
